target datalayout = "e-m:e-p270:32:32-p271:32:32-p272:64:64-i64:64-i128:128-f80:128-n8:16:32:64-S128"
target triple = "x86_64-pc-linux-gnu"

%"class.vcg::Point3" = type { [3 x float] }
%"class.vcg::TrackMode" = type { ptr }
%"class.vcg::Plane3" = type { float, %"class.vcg::Point3" }
%"class.vcg::PlaneMode" = type { %"class.vcg::TrackMode", %"class.vcg::Plane3" }

; Function Attrs: mustprogress uwtable
define void @_ZN3vcg9PlaneMode4DrawEPNS_9TrackballE(ptr noundef nonnull align 8 dereferenceable(24) %0, ptr noundef %1) unnamed_addr #2 align 2 {
  %3 = alloca ptr, align 8
  %4 = alloca ptr, align 8
  %5 = alloca %"class.vcg::Plane3", align 4
  store ptr %0, ptr %3, align 8
  store ptr %1, ptr %4, align 8
  %6 = load ptr, ptr %3, align 8
  %7 = load ptr, ptr %4, align 8
  call void @_ZN3vcg10trackutils14DrawSphereIconEPNS_9TrackballEbb(ptr noundef %7, i1 noundef zeroext true, i1 noundef zeroext false)
  %8 = load ptr, ptr %4, align 8
  %9 = getelementptr inbounds %"class.vcg::PlaneMode", ptr %6, i32 0, i32 1
  call void @llvm.memcpy.p0.p0.i64(ptr align 4 %5, ptr align 8 %9, i64 16, i1 false)
  %10 = getelementptr inbounds { <2 x float>, <2 x float> }, ptr %5, i32 0, i32 0
  %11 = load <2 x float>, ptr %10, align 4
  %12 = getelementptr inbounds { <2 x float>, <2 x float> }, ptr %5, i32 0, i32 1
  %13 = load <2 x float>, ptr %12, align 4
  call void @_ZN3vcg10trackutils17DrawUglyPlaneModeEPNS_9TrackballENS_6Plane3IfLb1EEE(ptr noundef %8, <2 x float> %11, <2 x float> %13)
  ret void
}