; Function Attrs: mustprogress uwtable
define void @_ZN3vcg9PlaneMode4DrawEPNS_9TrackballE(ptr nocapture noundef nonnull readonly align 8 dereferenceable(24) %0, ptr noundef %1) unnamed_addr #3 align 2 {
  tail call void @_ZN3vcg10trackutils14DrawSphereIconEPNS_9TrackballEbb(ptr noundef %1, i1 noundef zeroext true, i1 noundef zeroext false)
  %3 = getelementptr inbounds i8, ptr %0, i64 8
  %.sroa.0.0.copyload = load <2 x float>, ptr %3, align 8
  %.sroa.2.0..sroa_idx = getelementptr inbounds i8, ptr %0, i64 16
  %.sroa.2.0.copyload = load <2 x float>, ptr %.sroa.2.0..sroa_idx, align 8
  tail call void @_ZN3vcg10trackutils17DrawUglyPlaneModeEPNS_9TrackballENS_6Plane3IfLb1EEE(ptr noundef %1, <2 x float> %.sroa.0.0.copyload, <2 x float> %.sroa.2.0.copyload)
  ret void
}